target datalayout = "e-m:e-p270:32:32-p271:32:32-p272:64:64-i64:64-i128:128-f80:128-n8:16:32:64-S128"
target triple = "x86_64-pc-linux-gnu"

; Function Attrs: nounwind uwtable
define hidden void @ScaleFilterCols64_16_C(ptr noundef %0, ptr noundef %1, i32 noundef %2, i32 noundef %3, i32 noundef %4) #0 {
  %6 = alloca ptr, align 8
  %7 = alloca ptr, align 8
  %8 = alloca i32, align 4
  %9 = alloca i32, align 4
  %10 = alloca i32, align 4
  %11 = alloca i64, align 8
  %12 = alloca i32, align 4
  %13 = alloca i64, align 8
  %14 = alloca i32, align 4
  %15 = alloca i32, align 4
  %16 = alloca i64, align 8
  %17 = alloca i32, align 4
  %18 = alloca i32, align 4
  store ptr %0, ptr %6, align 8
  store ptr %1, ptr %7, align 8
  store i32 %2, ptr %8, align 4
  store i32 %3, ptr %9, align 4
  store i32 %4, ptr %10, align 4
  %19 = load i32, ptr %9, align 4
  %20 = sext i32 %19 to i64
  store i64 %20, ptr %11, align 8
  store i32 0, ptr %12, align 4
  br label %21

21:                                               ; preds = %95, %5
  %22 = load i32, ptr %12, align 4
  %23 = load i32, ptr %8, align 4
  %24 = sub nsw i32 %23, 1
  %25 = icmp slt i32 %22, %24
  br i1 %25, label %26, label %98

26:                                               ; preds = %21
  %27 = load i64, ptr %11, align 8
  %28 = ashr i64 %27, 16
  store i64 %28, ptr %13, align 8
  %29 = load ptr, ptr %7, align 8
  %30 = load i64, ptr %13, align 8
  %31 = getelementptr inbounds i16, ptr %29, i64 %30
  %32 = load i16, ptr %31, align 2
  %33 = zext i16 %32 to i32
  store i32 %33, ptr %14, align 4
  %34 = load ptr, ptr %7, align 8
  %35 = load i64, ptr %13, align 8
  %36 = add nsw i64 %35, 1
  %37 = getelementptr inbounds i16, ptr %34, i64 %36
  %38 = load i16, ptr %37, align 2
  %39 = zext i16 %38 to i32
  store i32 %39, ptr %15, align 4
  %40 = load i32, ptr %14, align 4
  %41 = load i64, ptr %11, align 8
  %42 = and i64 %41, 65535
  %43 = load i32, ptr %15, align 4
  %44 = sext i32 %43 to i64
  %45 = load i32, ptr %14, align 4
  %46 = sext i32 %45 to i64
  %47 = sub nsw i64 %44, %46
  %48 = mul nsw i64 %42, %47
  %49 = add nsw i64 %48, 32768
  %50 = ashr i64 %49, 16
  %51 = trunc i64 %50 to i32
  %52 = add nsw i32 %40, %51
  %53 = trunc i32 %52 to i16
  %54 = load ptr, ptr %6, align 8
  %55 = getelementptr inbounds i16, ptr %54, i64 0
  store i16 %53, ptr %55, align 2
  %56 = load i32, ptr %10, align 4
  %57 = sext i32 %56 to i64
  %58 = load i64, ptr %11, align 8
  %59 = add nsw i64 %58, %57
  store i64 %59, ptr %11, align 8
  %60 = load i64, ptr %11, align 8
  %61 = ashr i64 %60, 16
  store i64 %61, ptr %13, align 8
  %62 = load ptr, ptr %7, align 8
  %63 = load i64, ptr %13, align 8
  %64 = getelementptr inbounds i16, ptr %62, i64 %63
  %65 = load i16, ptr %64, align 2
  %66 = zext i16 %65 to i32
  store i32 %66, ptr %14, align 4
  %67 = load ptr, ptr %7, align 8
  %68 = load i64, ptr %13, align 8
  %69 = add nsw i64 %68, 1
  %70 = getelementptr inbounds i16, ptr %67, i64 %69
  %71 = load i16, ptr %70, align 2
  %72 = zext i16 %71 to i32
  store i32 %72, ptr %15, align 4
  %73 = load i32, ptr %14, align 4
  %74 = load i64, ptr %11, align 8
  %75 = and i64 %74, 65535
  %76 = load i32, ptr %15, align 4
  %77 = sext i32 %76 to i64
  %78 = load i32, ptr %14, align 4
  %79 = sext i32 %78 to i64
  %80 = sub nsw i64 %77, %79
  %81 = mul nsw i64 %75, %80
  %82 = add nsw i64 %81, 32768
  %83 = ashr i64 %82, 16
  %84 = trunc i64 %83 to i32
  %85 = add nsw i32 %73, %84
  %86 = trunc i32 %85 to i16
  %87 = load ptr, ptr %6, align 8
  %88 = getelementptr inbounds i16, ptr %87, i64 1
  store i16 %86, ptr %88, align 2
  %89 = load i32, ptr %10, align 4
  %90 = sext i32 %89 to i64
  %91 = load i64, ptr %11, align 8
  %92 = add nsw i64 %91, %90
  store i64 %92, ptr %11, align 8
  %93 = load ptr, ptr %6, align 8
  %94 = getelementptr inbounds i16, ptr %93, i64 2
  store ptr %94, ptr %6, align 8
  br label %95

95:                                               ; preds = %26
  %96 = load i32, ptr %12, align 4
  %97 = add nsw i32 %96, 2
  store i32 %97, ptr %12, align 4
  br label %21, !llvm.loop !16

98:                                               ; preds = %21
  %99 = load i32, ptr %8, align 4
  %100 = and i32 %99, 1
  %101 = icmp ne i32 %100, 0
  br i1 %101, label %102, label %132

102:                                              ; preds = %98
  %103 = load i64, ptr %11, align 8
  %104 = ashr i64 %103, 16
  store i64 %104, ptr %16, align 8
  %105 = load ptr, ptr %7, align 8
  %106 = load i64, ptr %16, align 8
  %107 = getelementptr inbounds i16, ptr %105, i64 %106
  %108 = load i16, ptr %107, align 2
  %109 = zext i16 %108 to i32
  store i32 %109, ptr %17, align 4
  %110 = load ptr, ptr %7, align 8
  %111 = load i64, ptr %16, align 8
  %112 = add nsw i64 %111, 1
  %113 = getelementptr inbounds i16, ptr %110, i64 %112
  %114 = load i16, ptr %113, align 2
  %115 = zext i16 %114 to i32
  store i32 %115, ptr %18, align 4
  %116 = load i32, ptr %17, align 4
  %117 = load i64, ptr %11, align 8
  %118 = and i64 %117, 65535
  %119 = load i32, ptr %18, align 4
  %120 = sext i32 %119 to i64
  %121 = load i32, ptr %17, align 4
  %122 = sext i32 %121 to i64
  %123 = sub nsw i64 %120, %122
  %124 = mul nsw i64 %118, %123
  %125 = add nsw i64 %124, 32768
  %126 = ashr i64 %125, 16
  %127 = trunc i64 %126 to i32
  %128 = add nsw i32 %116, %127
  %129 = trunc i32 %128 to i16
  %130 = load ptr, ptr %6, align 8
  %131 = getelementptr inbounds i16, ptr %130, i64 0
  store i16 %129, ptr %131, align 2
  br label %132

132:                                              ; preds = %102, %98
  ret void
}