; Function Attrs: nofree norecurse nosync nounwind memory(argmem: readwrite) uwtable
define hidden void @ScaleFilterCols64_16_C(ptr noundef writeonly captures(none) %0, ptr noundef readonly captures(none) %1, i32 noundef %2, i32 noundef %3, i32 noundef %4) local_unnamed_addr #0 {
  %6 = sext i32 %3 to i64
  %7 = add nsw i32 %2, -1
  %8 = icmp sgt i32 %2, 1
  br i1 %8, label %.lr.ph, label %._crit_edge

.lr.ph:                                           ; preds = %5
  %9 = sext i32 %4 to i64
  br label %10

10:                                               ; preds = %.lr.ph, %10
  %.043 = phi ptr [ %0, %.lr.ph ], [ %42, %10 ]
  %.03942 = phi i64 [ %6, %.lr.ph ], [ %41, %10 ]
  %.04041 = phi i32 [ 0, %.lr.ph ], [ %43, %10 ]
  %11 = ashr i64 %.03942, 16
  %12 = getelementptr inbounds i16, ptr %1, i64 %11
  %13 = load i16, ptr %12, align 2
  %14 = getelementptr i8, ptr %12, i64 2
  %15 = load i16, ptr %14, align 2
  %16 = and i64 %.03942, 65535
  %17 = zext i16 %15 to i64
  %18 = zext i16 %13 to i64
  %19 = sub nsw i64 %17, %18
  %20 = mul nsw i64 %19, %16
  %21 = add nsw i64 %20, 32768
  %22 = lshr i64 %21, 16
  %23 = trunc i64 %22 to i16
  %24 = add i16 %13, %23
  store i16 %24, ptr %.043, align 2
  %25 = add nsw i64 %.03942, %9
  %26 = ashr i64 %25, 16
  %27 = getelementptr inbounds i16, ptr %1, i64 %26
  %28 = load i16, ptr %27, align 2
  %29 = getelementptr i8, ptr %27, i64 2
  %30 = load i16, ptr %29, align 2
  %31 = and i64 %25, 65535
  %32 = zext i16 %30 to i64
  %33 = zext i16 %28 to i64
  %34 = sub nsw i64 %32, %33
  %35 = mul nsw i64 %34, %31
  %36 = add nsw i64 %35, 32768
  %37 = lshr i64 %36, 16
  %38 = trunc i64 %37 to i16
  %39 = add i16 %28, %38
  %40 = getelementptr inbounds nuw i8, ptr %.043, i64 2
  store i16 %39, ptr %40, align 2
  %41 = add nsw i64 %25, %9
  %42 = getelementptr inbounds nuw i8, ptr %.043, i64 4
  %43 = add nuw nsw i32 %.04041, 2
  %44 = icmp slt i32 %43, %7
  br i1 %44, label %10, label %._crit_edge, !llvm.loop !16

._crit_edge:                                      ; preds = %10, %5
  %.039.lcssa = phi i64 [ %6, %5 ], [ %41, %10 ]
  %.0.lcssa = phi ptr [ %0, %5 ], [ %42, %10 ]
  %45 = and i32 %2, 1
  %.not = icmp eq i32 %45, 0
  br i1 %.not, label %61, label %46

46:                                               ; preds = %._crit_edge
  %47 = ashr i64 %.039.lcssa, 16
  %48 = getelementptr inbounds i16, ptr %1, i64 %47
  %49 = load i16, ptr %48, align 2
  %50 = getelementptr i8, ptr %48, i64 2
  %51 = load i16, ptr %50, align 2
  %52 = and i64 %.039.lcssa, 65535
  %53 = zext i16 %51 to i64
  %54 = zext i16 %49 to i64
  %55 = sub nsw i64 %53, %54
  %56 = mul nsw i64 %55, %52
  %57 = add nsw i64 %56, 32768
  %58 = lshr i64 %57, 16
  %59 = trunc i64 %58 to i16
  %60 = add i16 %49, %59
  store i16 %60, ptr %.0.lcssa, align 2
  br label %61

61:                                               ; preds = %46, %._crit_edge
  ret void
}